; Function Attrs: mustprogress uwtable
define noundef ptr @_ZN8facebook5velox6memory15spillMemoryPoolEv() local_unnamed_addr #0 personality ptr @__gxx_personality_v0 {
entry:
  %ref.tmp = alloca %"class.std::__cxx11::basic_string", align 8
  %ref.tmp1 = alloca %"class.std::allocator.10", align 1
  %0 = load atomic i8, ptr @_ZGVZN8facebook5velox6memory15spillMemoryPoolEvE4pool acquire, align 8
  %guard.uninitialized = icmp eq i8 %0, 0
  br i1 %guard.uninitialized, label %init.check, label %init.end, !prof !30

init.check:                                       ; preds = %entry
  %1 = tail call i32 @__cxa_guard_acquire(ptr nonnull @_ZGVZN8facebook5velox6memory15spillMemoryPoolEvE4pool) #19
  %tobool.not = icmp eq i32 %1, 0
  br i1 %tobool.not, label %init.end, label %init

init:                                             ; preds = %init.check
  call void @_ZNSaIcEC1Ev(ptr noundef nonnull align 1 dereferenceable(1) %ref.tmp1) #19
  invoke void @_ZNSt7__cxx1112basic_stringIcSt11char_traitsIcESaIcEEC2IS3_EEPKcRKS3_(ptr noundef nonnull align 8 dereferenceable(32) %ref.tmp, ptr noundef nonnull @.str.12, ptr noundef nonnull align 1 dereferenceable(1) %ref.tmp1)
          to label %invoke.cont unwind label %lpad

invoke.cont:                                      ; preds = %init
  %call.i2 = invoke noundef nonnull align 8 dereferenceable(176) ptr @_ZN8facebook5velox6memory20defaultMemoryManagerEv()
          to label %call.i.noexc unwind label %lpad2

call.i.noexc:                                     ; preds = %invoke.cont
  invoke void @_ZN8facebook5velox6memory13MemoryManager11addLeafPoolERKNSt7__cxx1112basic_stringIcSt11char_traitsIcESaIcEEEb(ptr nonnull sret(%"class.std::shared_ptr.2") align 8 @_ZZN8facebook5velox6memory15spillMemoryPoolEvE4pool, ptr noundef nonnull align 8 dereferenceable(176) @_ZZN8facebook5velox6memory13MemoryManager11getInstanceERKNS1_20MemoryManagerOptionsEE7manager, ptr noundef nonnull align 8 dereferenceable(32) %ref.tmp, i1 noundef zeroext true)
          to label %invoke.cont3 unwind label %lpad2

invoke.cont3:                                     ; preds = %call.i.noexc
  call void @_ZNSt7__cxx1112basic_stringIcSt11char_traitsIcESaIcEED1Ev(ptr noundef nonnull align 8 dereferenceable(32) %ref.tmp) #19
  call void @_ZNSaIcED1Ev(ptr noundef nonnull align 1 dereferenceable(1) %ref.tmp1) #19
  %2 = call i32 @__cxa_atexit(ptr nonnull @_ZNSt10shared_ptrIN8facebook5velox6memory10MemoryPoolEED2Ev, ptr nonnull @_ZZN8facebook5velox6memory15spillMemoryPoolEvE4pool, ptr nonnull @__dso_handle) #19
  call void @__cxa_guard_release(ptr nonnull @_ZGVZN8facebook5velox6memory15spillMemoryPoolEvE4pool) #19
  br label %init.end

init.end:                                         ; preds = %invoke.cont3, %init.check, %entry
  %3 = load ptr, ptr @_ZZN8facebook5velox6memory15spillMemoryPoolEvE4pool, align 8
  ret ptr %3

lpad:                                             ; preds = %init
  %4 = landingpad { ptr, i32 }
          cleanup
  br label %ehcleanup

lpad2:                                            ; preds = %call.i.noexc, %invoke.cont
  %5 = landingpad { ptr, i32 }
          cleanup
  call void @_ZNSt7__cxx1112basic_stringIcSt11char_traitsIcESaIcEED1Ev(ptr noundef nonnull align 8 dereferenceable(32) %ref.tmp) #19
  br label %ehcleanup

ehcleanup:                                        ; preds = %lpad2, %lpad
  %.pn = phi { ptr, i32 } [ %5, %lpad2 ], [ %4, %lpad ]
  call void @_ZNSaIcED1Ev(ptr noundef nonnull align 1 dereferenceable(1) %ref.tmp1) #19
  call void @__cxa_guard_abort(ptr nonnull @_ZGVZN8facebook5velox6memory15spillMemoryPoolEvE4pool) #19
  resume { ptr, i32 } %.pn
}